target datalayout = "e-m:e-p270:32:32-p271:32:32-p272:64:64-i64:64-i128:128-f80:128-n8:16:32:64-S128"
target triple = "x86_64-pc-linux-gnu"

; Function Attrs: mustprogress nounwind uwtable
define internal noundef i32 @_ZN19OpenColorIO_v2_5dev12_GLOBAL__N_114MiddleMaxValueILNS_8BitDepthE3ELS2_5EEEjv() #6 {
  ret i32 34815
}

; Function Attrs: mustprogress nounwind uwtable
define internal noundef i32 @_ZN19OpenColorIO_v2_5dev12_GLOBAL__N_114MiddleMaxValueILNS_8BitDepthE2ELS2_3EEEjv() #6 {
  ret i32 2559
}

; Function Attrs: mustprogress nounwind uwtable
define internal noundef i32 @_ZN19OpenColorIO_v2_5dev12_GLOBAL__N_114MiddleMaxValueILNS_8BitDepthE1ELS2_2EEEjv() #6 {
  ret i32 639
}

; Function Attrs: mustprogress nounwind uwtable
define internal noundef i32 @_ZN19OpenColorIO_v2_5dev12_GLOBAL__N_114MiddleMaxValueILNS_8BitDepthE8ELS2_1EEEjv() #6 {
  ret i32 128
}

; Function Attrs: mustprogress uwtable
define hidden noundef i32 @_ZN19OpenColorIO_v2_5dev23GetBitdepthFromMaxValueEj(i32 noundef %0) #4 {
  %2 = alloca i32, align 4
  %3 = alloca i32, align 4
  store i32 %0, ptr %3, align 4, !tbaa !14
  %4 = load i32, ptr %3, align 4, !tbaa !14
  %5 = call noundef i32 @_ZN19OpenColorIO_v2_5dev12_GLOBAL__N_114MiddleMaxValueILNS_8BitDepthE8ELS2_1EEEjv()
  %6 = icmp ult i32 %4, %5
  br i1 %6, label %7, label %8

7:                                                ; preds = %1
  store i32 8, ptr %2, align 4
  br label %27

8:                                                ; preds = %1
  %9 = load i32, ptr %3, align 4, !tbaa !14
  %10 = call noundef i32 @_ZN19OpenColorIO_v2_5dev12_GLOBAL__N_114MiddleMaxValueILNS_8BitDepthE1ELS2_2EEEjv()
  %11 = icmp ult i32 %9, %10
  br i1 %11, label %12, label %13

12:                                               ; preds = %8
  store i32 1, ptr %2, align 4
  br label %27

13:                                               ; preds = %8
  %14 = load i32, ptr %3, align 4, !tbaa !14
  %15 = call noundef i32 @_ZN19OpenColorIO_v2_5dev12_GLOBAL__N_114MiddleMaxValueILNS_8BitDepthE2ELS2_3EEEjv()
  %16 = icmp ult i32 %14, %15
  br i1 %16, label %17, label %18

17:                                               ; preds = %13
  store i32 2, ptr %2, align 4
  br label %27

18:                                               ; preds = %13
  %19 = load i32, ptr %3, align 4, !tbaa !14
  %20 = call noundef i32 @_ZN19OpenColorIO_v2_5dev12_GLOBAL__N_114MiddleMaxValueILNS_8BitDepthE3ELS2_5EEEjv()
  %21 = icmp ult i32 %19, %20
  br i1 %21, label %22, label %23

22:                                               ; preds = %18
  store i32 3, ptr %2, align 4
  br label %27

23:                                               ; preds = %18
  br label %24

24:                                               ; preds = %23
  br label %25

25:                                               ; preds = %24
  br label %26

26:                                               ; preds = %25
  store i32 5, ptr %2, align 4
  br label %27

27:                                               ; preds = %26, %22, %17, %12, %7
  %28 = load i32, ptr %2, align 4
  ret i32 %28
}