; Function Attrs: mustprogress nofree norecurse nosync nounwind willreturn memory(none) uwtable
define hidden noundef range(i32 1, 9) i32 @_ZN19OpenColorIO_v2_5dev23GetBitdepthFromMaxValueEj(i32 noundef %0) local_unnamed_addr #6 {
  %2 = icmp ult i32 %0, 128
  br i1 %2, label %9, label %3

3:                                                ; preds = %1
  %4 = icmp ult i32 %0, 639
  br i1 %4, label %9, label %5

5:                                                ; preds = %3
  %6 = icmp ult i32 %0, 2559
  br i1 %6, label %9, label %7

7:                                                ; preds = %5
  %8 = icmp ult i32 %0, 34815
  %. = select i1 %8, i32 3, i32 5
  br label %9

9:                                                ; preds = %7, %5, %3, %1
  %.0 = phi i32 [ 8, %1 ], [ 1, %3 ], [ 2, %5 ], [ %., %7 ]
  ret i32 %.0
}